target datalayout = "e-m:e-p270:32:32-p271:32:32-p272:64:64-i64:64-i128:128-f80:128-n8:16:32:64-S128"
target triple = "x86_64-pc-linux-gnu"

%struct.mcclellan = type { i16, i32, i16, i16, i32, i32, i32, i16, i16, i16, i16, i8, i8, i8, i8, [256 x i8], i32, i32, i32, i32 }
%struct.gough_som_info = type { [1 x i64] }
%struct.mstate_aux = type { i32, i32, i16, i32 }
%struct.gough_info = type { i32, i32, i32, i8 }
%struct.gough_ins = type { i32, i32, i32 }

; Function Attrs: alwaysinline nounwind uwtable
define internal ptr @get_gough(ptr noundef %0) #2 {
  %2 = alloca ptr, align 8
  %3 = alloca ptr, align 8
  store ptr %0, ptr %2, align 8
  call void @llvm.lifetime.start.p0(i64 8, ptr %3) #10
  %4 = load ptr, ptr %2, align 8
  %5 = getelementptr inbounds i8, ptr %4, i64 -64
  store ptr %5, ptr %3, align 8
  %6 = load ptr, ptr %3, align 8
  %7 = load ptr, ptr %2, align 8
  %8 = getelementptr inbounds nuw %struct.mcclellan, ptr %7, i32 0, i32 18
  %9 = load i32, ptr %8, align 4
  %10 = zext i32 %9 to i64
  %11 = getelementptr inbounds nuw i8, ptr %6, i64 %10
  call void @llvm.lifetime.end.p0(i64 8, ptr %3) #10
  ret ptr %11
}

; Function Attrs: alwaysinline nounwind uwtable
define internal void @run_prog_i(ptr noundef %0, ptr noundef %1, i64 noundef %2, ptr noundef %3) #2 {
  %5 = alloca ptr, align 8
  %6 = alloca ptr, align 8
  %7 = alloca i64, align 8
  %8 = alloca ptr, align 8
  %9 = alloca i32, align 4
  %10 = alloca i32, align 4
  %11 = alloca i32, align 4
  store ptr %0, ptr %5, align 8
  store ptr %1, ptr %6, align 8
  store i64 %2, ptr %7, align 8
  store ptr %3, ptr %8, align 8
  br label %12

12:                                               ; preds = %4
  br label %13

13:                                               ; preds = %12
  br label %14

14:                                               ; preds = %13, %129
  call void @llvm.lifetime.start.p0(i64 4, ptr %9) #10
  %15 = load ptr, ptr %6, align 8
  %16 = getelementptr inbounds nuw %struct.gough_ins, ptr %15, i32 0, i32 1
  %17 = load i32, ptr %16, align 4
  store i32 %17, ptr %9, align 4
  call void @llvm.lifetime.start.p0(i64 4, ptr %10) #10
  %18 = load ptr, ptr %6, align 8
  %19 = getelementptr inbounds nuw %struct.gough_ins, ptr %18, i32 0, i32 2
  %20 = load i32, ptr %19, align 4
  store i32 %20, ptr %10, align 4
  br label %21

21:                                               ; preds = %14
  br label %22

22:                                               ; preds = %21
  br label %23

23:                                               ; preds = %22
  %24 = load ptr, ptr %6, align 8
  %25 = getelementptr inbounds nuw %struct.gough_ins, ptr %24, i32 0, i32 0
  %26 = load i32, ptr %25, align 4
  switch i32 %26, label %120 [
    i32 0, label %27
    i32 1, label %28
    i32 2, label %40
    i32 3, label %55
  ]

27:                                               ; preds = %23
  store i32 1, ptr %11, align 4
  br label %127

28:                                               ; preds = %23
  %29 = load ptr, ptr %8, align 8
  %30 = getelementptr inbounds nuw %struct.gough_som_info, ptr %29, i32 0, i32 0
  %31 = load i32, ptr %10, align 4
  %32 = zext i32 %31 to i64
  %33 = getelementptr inbounds nuw [1 x i64], ptr %30, i64 0, i64 %32
  %34 = load i64, ptr %33, align 8
  %35 = load ptr, ptr %8, align 8
  %36 = getelementptr inbounds nuw %struct.gough_som_info, ptr %35, i32 0, i32 0
  %37 = load i32, ptr %9, align 4
  %38 = zext i32 %37 to i64
  %39 = getelementptr inbounds nuw [1 x i64], ptr %36, i64 0, i64 %38
  store i64 %34, ptr %39, align 8
  br label %121

40:                                               ; preds = %23
  br label %41

41:                                               ; preds = %40
  br label %42

42:                                               ; preds = %41
  br label %43

43:                                               ; preds = %42
  %44 = load i64, ptr %7, align 8
  %45 = load ptr, ptr %6, align 8
  %46 = getelementptr inbounds nuw %struct.gough_ins, ptr %45, i32 0, i32 2
  %47 = load i32, ptr %46, align 4
  %48 = zext i32 %47 to i64
  %49 = sub i64 %44, %48
  %50 = load ptr, ptr %8, align 8
  %51 = getelementptr inbounds nuw %struct.gough_som_info, ptr %50, i32 0, i32 0
  %52 = load i32, ptr %9, align 4
  %53 = zext i32 %52 to i64
  %54 = getelementptr inbounds nuw [1 x i64], ptr %51, i64 0, i64 %53
  store i64 %49, ptr %54, align 8
  br label %121

55:                                               ; preds = %23
  %56 = load ptr, ptr %8, align 8
  %57 = getelementptr inbounds nuw %struct.gough_som_info, ptr %56, i32 0, i32 0
  %58 = load i32, ptr %10, align 4
  %59 = zext i32 %58 to i64
  %60 = getelementptr inbounds nuw [1 x i64], ptr %57, i64 0, i64 %59
  %61 = load i64, ptr %60, align 8
  %62 = icmp eq i64 %61, -1
  br i1 %62, label %63, label %75

63:                                               ; preds = %55
  %64 = load ptr, ptr %8, align 8
  %65 = getelementptr inbounds nuw %struct.gough_som_info, ptr %64, i32 0, i32 0
  %66 = load i32, ptr %10, align 4
  %67 = zext i32 %66 to i64
  %68 = getelementptr inbounds nuw [1 x i64], ptr %65, i64 0, i64 %67
  %69 = load i64, ptr %68, align 8
  %70 = load ptr, ptr %8, align 8
  %71 = getelementptr inbounds nuw %struct.gough_som_info, ptr %70, i32 0, i32 0
  %72 = load i32, ptr %9, align 4
  %73 = zext i32 %72 to i64
  %74 = getelementptr inbounds nuw [1 x i64], ptr %71, i64 0, i64 %73
  store i64 %69, ptr %74, align 8
  br label %119

75:                                               ; preds = %55
  %76 = load ptr, ptr %8, align 8
  %77 = getelementptr inbounds nuw %struct.gough_som_info, ptr %76, i32 0, i32 0
  %78 = load i32, ptr %9, align 4
  %79 = zext i32 %78 to i64
  %80 = getelementptr inbounds nuw [1 x i64], ptr %77, i64 0, i64 %79
  %81 = load i64, ptr %80, align 8
  %82 = icmp ne i64 %81, -1
  br i1 %82, label %83, label %118

83:                                               ; preds = %75
  %84 = load ptr, ptr %8, align 8
  %85 = getelementptr inbounds nuw %struct.gough_som_info, ptr %84, i32 0, i32 0
  %86 = load i32, ptr %9, align 4
  %87 = zext i32 %86 to i64
  %88 = getelementptr inbounds nuw [1 x i64], ptr %85, i64 0, i64 %87
  %89 = load i64, ptr %88, align 8
  %90 = load ptr, ptr %8, align 8
  %91 = getelementptr inbounds nuw %struct.gough_som_info, ptr %90, i32 0, i32 0
  %92 = load i32, ptr %10, align 4
  %93 = zext i32 %92 to i64
  %94 = getelementptr inbounds nuw [1 x i64], ptr %91, i64 0, i64 %93
  %95 = load i64, ptr %94, align 8
  %96 = icmp ult i64 %89, %95
  br i1 %96, label %97, label %104

97:                                               ; preds = %83
  %98 = load ptr, ptr %8, align 8
  %99 = getelementptr inbounds nuw %struct.gough_som_info, ptr %98, i32 0, i32 0
  %100 = load i32, ptr %9, align 4
  %101 = zext i32 %100 to i64
  %102 = getelementptr inbounds nuw [1 x i64], ptr %99, i64 0, i64 %101
  %103 = load i64, ptr %102, align 8
  br label %111

104:                                              ; preds = %83
  %105 = load ptr, ptr %8, align 8
  %106 = getelementptr inbounds nuw %struct.gough_som_info, ptr %105, i32 0, i32 0
  %107 = load i32, ptr %10, align 4
  %108 = zext i32 %107 to i64
  %109 = getelementptr inbounds nuw [1 x i64], ptr %106, i64 0, i64 %108
  %110 = load i64, ptr %109, align 8
  br label %111

111:                                              ; preds = %104, %97
  %112 = phi i64 [ %103, %97 ], [ %110, %104 ]
  %113 = load ptr, ptr %8, align 8
  %114 = getelementptr inbounds nuw %struct.gough_som_info, ptr %113, i32 0, i32 0
  %115 = load i32, ptr %9, align 4
  %116 = zext i32 %115 to i64
  %117 = getelementptr inbounds nuw [1 x i64], ptr %114, i64 0, i64 %116
  store i64 %112, ptr %117, align 8
  br label %118

118:                                              ; preds = %111, %75
  br label %119

119:                                              ; preds = %118, %63
  br label %121

120:                                              ; preds = %23
  store i32 1, ptr %11, align 4
  br label %127

121:                                              ; preds = %119, %43, %28
  br label %122

122:                                              ; preds = %121
  br label %123

123:                                              ; preds = %122
  br label %124

124:                                              ; preds = %123
  %125 = load ptr, ptr %6, align 8
  %126 = getelementptr inbounds nuw %struct.gough_ins, ptr %125, i32 1
  store ptr %126, ptr %6, align 8
  store i32 0, ptr %11, align 4
  br label %127

127:                                              ; preds = %124, %120, %27
  call void @llvm.lifetime.end.p0(i64 4, ptr %10) #10
  call void @llvm.lifetime.end.p0(i64 4, ptr %9) #10
  %128 = load i32, ptr %11, align 4
  switch i32 %128, label %131 [
    i32 0, label %129
    i32 1, label %130
  ]

129:                                              ; preds = %127
  br label %14

130:                                              ; preds = %127
  ret void

131:                                              ; preds = %127
  unreachable
}

; Function Attrs: alwaysinline nounwind uwtable
define internal ptr @get_gough_top_offsets(ptr noundef %0) #2 {
  %2 = alloca ptr, align 8
  %3 = alloca ptr, align 8
  %4 = alloca ptr, align 8
  %5 = alloca i32, align 4
  %6 = alloca ptr, align 8
  store ptr %0, ptr %3, align 8
  call void @llvm.lifetime.start.p0(i64 8, ptr %4) #10
  %7 = load ptr, ptr %3, align 8
  %8 = call ptr @get_gough(ptr noundef %7)
  store ptr %8, ptr %4, align 8
  %9 = load ptr, ptr %4, align 8
  %10 = getelementptr inbounds nuw %struct.gough_info, ptr %9, i32 0, i32 0
  %11 = load i32, ptr %10, align 4
  %12 = icmp ne i32 %11, 0
  br i1 %12, label %14, label %13

13:                                               ; preds = %1
  store ptr null, ptr %2, align 8
  store i32 1, ptr %5, align 4
  br label %23

14:                                               ; preds = %1
  call void @llvm.lifetime.start.p0(i64 8, ptr %6) #10
  %15 = load ptr, ptr %3, align 8
  %16 = getelementptr inbounds i8, ptr %15, i64 -64
  store ptr %16, ptr %6, align 8
  %17 = load ptr, ptr %6, align 8
  %18 = load ptr, ptr %4, align 8
  %19 = getelementptr inbounds nuw %struct.gough_info, ptr %18, i32 0, i32 0
  %20 = load i32, ptr %19, align 4
  %21 = zext i32 %20 to i64
  %22 = getelementptr inbounds nuw i8, ptr %17, i64 %21
  store ptr %22, ptr %2, align 8
  store i32 1, ptr %5, align 4
  call void @llvm.lifetime.end.p0(i64 8, ptr %6) #10
  br label %23

23:                                               ; preds = %14, %13
  call void @llvm.lifetime.end.p0(i64 8, ptr %4) #10
  %24 = load ptr, ptr %2, align 8
  ret ptr %24
}

; Function Attrs: alwaysinline nounwind uwtable
define internal ptr @get_aux(ptr noundef %0, i32 noundef %1) #2 {
  %3 = alloca ptr, align 8
  %4 = alloca i32, align 4
  %5 = alloca ptr, align 8
  %6 = alloca ptr, align 8
  store ptr %0, ptr %3, align 8
  store i32 %1, ptr %4, align 4
  call void @llvm.lifetime.start.p0(i64 8, ptr %5) #10
  %7 = load ptr, ptr %3, align 8
  %8 = getelementptr inbounds i8, ptr %7, i64 -64
  store ptr %8, ptr %5, align 8
  call void @llvm.lifetime.start.p0(i64 8, ptr %6) #10
  %9 = load i32, ptr %4, align 4
  %10 = load ptr, ptr %5, align 8
  %11 = load ptr, ptr %3, align 8
  %12 = getelementptr inbounds nuw %struct.mcclellan, ptr %11, i32 0, i32 4
  %13 = load i32, ptr %12, align 4
  %14 = zext i32 %13 to i64
  %15 = getelementptr inbounds nuw i8, ptr %10, i64 %14
  %16 = zext i32 %9 to i64
  %17 = getelementptr inbounds nuw %struct.mstate_aux, ptr %15, i64 %16
  store ptr %17, ptr %6, align 8
  %18 = load ptr, ptr %6, align 8
  call void @llvm.lifetime.end.p0(i64 8, ptr %6) #10
  call void @llvm.lifetime.end.p0(i64 8, ptr %5) #10
  ret ptr %18
}

; Function Attrs: noinline nounwind uwtable
define internal zeroext i16 @goughEnableStarts(ptr noundef %0, i16 noundef zeroext %1, i64 noundef %2, ptr noundef %3) #5 {
  %5 = alloca i16, align 2
  %6 = alloca ptr, align 8
  %7 = alloca i16, align 2
  %8 = alloca i64, align 8
  %9 = alloca ptr, align 8
  %10 = alloca ptr, align 8
  %11 = alloca ptr, align 8
  %12 = alloca i32, align 4
  %13 = alloca i32, align 4
  %14 = alloca ptr, align 8
  %15 = alloca ptr, align 8
  store ptr %0, ptr %6, align 8
  store i16 %1, ptr %7, align 2
  store i64 %2, ptr %8, align 8
  store ptr %3, ptr %9, align 8
  br label %16

16:                                               ; preds = %4
  br label %17

17:                                               ; preds = %16
  call void @llvm.lifetime.start.p0(i64 8, ptr %10) #10
  %18 = load ptr, ptr %6, align 8
  %19 = load i16, ptr %7, align 2
  %20 = zext i16 %19 to i32
  %21 = call ptr @get_aux(ptr noundef %18, i32 noundef %20)
  store ptr %21, ptr %10, align 8
  br label %22

22:                                               ; preds = %17
  br label %23

23:                                               ; preds = %22
  br label %24

24:                                               ; preds = %23
  call void @llvm.lifetime.start.p0(i64 8, ptr %11) #10
  %25 = load ptr, ptr %6, align 8
  %26 = call ptr @get_gough_top_offsets(ptr noundef %25)
  store ptr %26, ptr %11, align 8
  %27 = load ptr, ptr %11, align 8
  %28 = icmp ne ptr %27, null
  br i1 %28, label %33, label %29

29:                                               ; preds = %24
  %30 = load ptr, ptr %10, align 8
  %31 = getelementptr inbounds nuw %struct.mstate_aux, ptr %30, i32 0, i32 2
  %32 = load i16, ptr %31, align 4
  store i16 %32, ptr %5, align 2
  store i32 1, ptr %12, align 4
  br label %63

33:                                               ; preds = %24
  call void @llvm.lifetime.start.p0(i64 4, ptr %13) #10
  %34 = load ptr, ptr %11, align 8
  %35 = load i16, ptr %7, align 2
  %36 = zext i16 %35 to i64
  %37 = getelementptr inbounds nuw i32, ptr %34, i64 %36
  %38 = load i32, ptr %37, align 4
  store i32 %38, ptr %13, align 4
  %39 = load i32, ptr %13, align 4
  %40 = icmp ne i32 %39, 0
  br i1 %40, label %45, label %41

41:                                               ; preds = %33
  %42 = load ptr, ptr %10, align 8
  %43 = getelementptr inbounds nuw %struct.mstate_aux, ptr %42, i32 0, i32 2
  %44 = load i16, ptr %43, align 4
  store i16 %44, ptr %5, align 2
  store i32 1, ptr %12, align 4
  br label %62

45:                                               ; preds = %33
  br label %46

46:                                               ; preds = %45
  br label %47

47:                                               ; preds = %46
  br label %48

48:                                               ; preds = %47
  call void @llvm.lifetime.start.p0(i64 8, ptr %14) #10
  %49 = load ptr, ptr %6, align 8
  %50 = getelementptr inbounds i8, ptr %49, i64 -64
  store ptr %50, ptr %14, align 8
  call void @llvm.lifetime.start.p0(i64 8, ptr %15) #10
  %51 = load ptr, ptr %14, align 8
  %52 = load i32, ptr %13, align 4
  %53 = zext i32 %52 to i64
  %54 = getelementptr inbounds nuw i8, ptr %51, i64 %53
  store ptr %54, ptr %15, align 8
  %55 = load ptr, ptr %14, align 8
  %56 = load ptr, ptr %15, align 8
  %57 = load i64, ptr %8, align 8
  %58 = load ptr, ptr %9, align 8
  call void @run_prog_i(ptr noundef %55, ptr noundef %56, i64 noundef %57, ptr noundef %58)
  %59 = load ptr, ptr %10, align 8
  %60 = getelementptr inbounds nuw %struct.mstate_aux, ptr %59, i32 0, i32 2
  %61 = load i16, ptr %60, align 4
  store i16 %61, ptr %5, align 2
  store i32 1, ptr %12, align 4
  call void @llvm.lifetime.end.p0(i64 8, ptr %15) #10
  call void @llvm.lifetime.end.p0(i64 8, ptr %14) #10
  br label %62

62:                                               ; preds = %48, %41
  call void @llvm.lifetime.end.p0(i64 4, ptr %13) #10
  br label %63

63:                                               ; preds = %62, %29
  call void @llvm.lifetime.end.p0(i64 8, ptr %11) #10
  call void @llvm.lifetime.end.p0(i64 8, ptr %10) #10
  %64 = load i16, ptr %5, align 2
  ret i16 %64
}