; Function Attrs: nofree noinline norecurse nosync nounwind memory(argmem: readwrite) uwtable
define internal fastcc zeroext i16 @goughEnableStarts(ptr noundef readonly captures(none) %0, i16 noundef zeroext %1, i64 noundef %2, ptr noundef captures(none) %3) unnamed_addr #9 {
  %5 = getelementptr inbounds i8, ptr %0, i64 -64
  %6 = getelementptr inbounds nuw i8, ptr %0, i64 12
  %7 = load i32, ptr %6, align 4
  %8 = getelementptr inbounds nuw i8, ptr %0, i64 300
  %9 = load i32, ptr %8, align 4
  %10 = zext i32 %9 to i64
  %11 = getelementptr inbounds nuw i8, ptr %5, i64 %10
  %12 = load i32, ptr %11, align 4
  %.not.i20 = icmp eq i32 %12, 0
  br i1 %.not.i20, label %.run_prog_i.exit_crit_edge, label %13

.run_prog_i.exit_crit_edge:                       ; preds = %4
  %.pre = zext i16 %1 to i64
  br label %run_prog_i.exit

13:                                               ; preds = %4
  %14 = zext i32 %12 to i64
  %15 = getelementptr inbounds nuw i8, ptr %5, i64 %14
  %16 = zext i16 %1 to i64
  %17 = getelementptr inbounds nuw i32, ptr %15, i64 %16
  %18 = load i32, ptr %17, align 4
  %.not19 = icmp eq i32 %18, 0
  br i1 %.not19, label %run_prog_i.exit, label %19

19:                                               ; preds = %13
  %20 = zext i32 %18 to i64
  %21 = getelementptr inbounds nuw i8, ptr %5, i64 %20
  br label %22

22:                                               ; preds = %50, %19
  %.030.i = phi ptr [ %21, %19 ], [ %51, %50 ]
  %23 = getelementptr inbounds nuw i8, ptr %.030.i, i64 4
  %24 = load i32, ptr %23, align 4
  %25 = getelementptr inbounds nuw i8, ptr %.030.i, i64 8
  %26 = load i32, ptr %25, align 4
  %27 = load i32, ptr %.030.i, align 4
  switch i32 %27, label %run_prog_i.exit [
    i32 3, label %39
    i32 1, label %28
    i32 2, label %34
  ]

28:                                               ; preds = %22
  %29 = zext i32 %26 to i64
  %30 = getelementptr inbounds nuw [1 x i64], ptr %3, i64 0, i64 %29
  %31 = load i64, ptr %30, align 8
  %32 = zext i32 %24 to i64
  %33 = getelementptr inbounds nuw [1 x i64], ptr %3, i64 0, i64 %32
  store i64 %31, ptr %33, align 8
  br label %50

34:                                               ; preds = %22
  %35 = zext i32 %26 to i64
  %36 = sub i64 %2, %35
  %37 = zext i32 %24 to i64
  %38 = getelementptr inbounds nuw [1 x i64], ptr %3, i64 0, i64 %37
  store i64 %36, ptr %38, align 8
  br label %50

39:                                               ; preds = %22
  %40 = zext i32 %26 to i64
  %41 = getelementptr inbounds nuw [1 x i64], ptr %3, i64 0, i64 %40
  %42 = load i64, ptr %41, align 8
  %43 = icmp eq i64 %42, -1
  %44 = zext i32 %24 to i64
  %45 = getelementptr inbounds nuw [1 x i64], ptr %3, i64 0, i64 %44
  br i1 %43, label %46, label %47

46:                                               ; preds = %39
  store i64 -1, ptr %45, align 8
  br label %50

47:                                               ; preds = %39
  %48 = load i64, ptr %45, align 8
  %.not.i = icmp eq i64 %48, -1
  br i1 %.not.i, label %50, label %49

49:                                               ; preds = %47
  %..i = tail call i64 @llvm.umin.i64(i64 %48, i64 %42)
  store i64 %..i, ptr %45, align 8
  br label %50

50:                                               ; preds = %28, %34, %46, %47, %49
  %51 = getelementptr inbounds nuw i8, ptr %.030.i, i64 12
  br label %22

run_prog_i.exit:                                  ; preds = %22, %.run_prog_i.exit_crit_edge, %13
  %.pre-phi = phi i64 [ %.pre, %.run_prog_i.exit_crit_edge ], [ %16, %13 ], [ %16, %22 ]
  %52 = zext i32 %7 to i64
  %53 = getelementptr inbounds nuw i8, ptr %5, i64 %52
  %.0.in = getelementptr inbounds nuw %struct.mstate_aux, ptr %53, i64 %.pre-phi, i32 2
  %.0 = load i16, ptr %.0.in, align 4
  ret i16 %.0
}